Certificate:
    Data:
        Version: 3 (0x2)
        Serial Number: 4108 (0x100c)
        Signature Algorithm: sha256WithRSAEncryption
        Issuer: CN=Demo Rotation CA
        Validity
            Not Before: Feb 18 19:37:44 2025 GMT
            Not After : Mar  4 19:37:44 2026 GMT
        Subject: CN=iis1.demo.local
        Subject Public Key Info:
            Public Key Algorithm: rsaEncryption
                Public-Key: (2048 bit)
                Modulus:
                    00:a1:b0:9c:67:49:52:34:32:57:a4:07:d5:bc:82:
                    1c:81:57:30:d7:dc:af:15:3e:17:28:a4:93:f0:69:
                    68:ea:b1:f9:77:aa:c3:63:82:81:26:75:e1:c2:69:
                    98:c6:36:66:55:65:b2:ec:76:60:39:ef:cf:f4:d2:
                    d5:da:d4:b3:26:e7:60:54:b5:fe:7d:62:1c:f6:7b:
                    e7:e9:df:b5:e6:2e:d4:2c:40:92:8e:dd:2a:9b:35:
                    34:4c:8d:75:c3:77:1c:1f:35:a2:40:e3:b2:07:f5:
                    19:36:0b:ad:3d:5f:da:15:7c:c4:6b:bc:72:a0:fc:
                    db:31:2b:d0:b5:b7:cb:4c:85:99:02:81:af:b6:49:
                    6b:4a:61:b6:16:60:90:d1:84:59:01:76:5e:33:d4:
                    a1:51:b3:b2:32:b0:d9:02:ed:7f:26:36:57:8c:bb:
                    1a:c6:bd:b6:6d:07:68:14:2a:95:5e:61:fb:68:8a:
                    c9:1b:18:f6:66:29:ce:55:89:81:15:fa:cf:9a:96:
                    bf:3b:7a:1c:2f:20:96:3e:d8:76:b7:59:19:45:8d:
                    87:c4:ca:ae:4e:88:41:a8:cd:d7:5c:db:0c:d8:fc:
                    82:03:1f:37:3d:05:37:23:22:a5:62:de:90:32:74:
                    02:ea:08:33:99:b5:b3:d8:b6:68:b8:00:57:fe:22:
                    1c:b3
                Exponent: 65537 (0x10001)
        X509v3 extensions:
            X509v3 Basic Constraints: 
                CA:FALSE
            X509v3 Key Usage: 
                Digital Signature, Key Encipherment
            X509v3 Extended Key Usage: 
                TLS Web Server Authentication
            X509v3 Subject Alternative Name: 
                DNS:iis1.demo.local, DNS:iis2.demo.local
            X509v3 Subject Key Identifier: 
                7E:1E:02:31:84:0F:AB:EC:32:5A:E0:18:18:93:E5:86:16:39:51:FF
            X509v3 Authority Key Identifier: 
                AA:53:36:00:E8:DA:E6:1B:D4:AF:EE:A4:EB:26:E6:0E:36:7E:0F:12
    Signature Algorithm: sha256WithRSAEncryption
    Signature Value:
        49:a7:74:81:2e:67:93:68:10:40:9d:51:f6:41:89:f7:13:7b:
        74:5e:8a:f4:ec:c0:da:35:fc:86:25:a4:cc:35:0d:7f:50:18:
        98:26:d6:8c:5a:fd:17:89:df:48:c3:14:7d:64:d9:c7:f6:0b:
        d1:10:89:f0:bb:e7:38:95:52:0d:b9:f0:a0:ca:68:f5:73:be:
        19:1c:8e:72:04:ae:d5:ee:52:02:51:9d:33:1a:4e:85:57:1f:
        d6:f4:ea:58:9e:79:fe:32:10:d0:df:b1:29:ed:c1:1f:8b:6a:
        29:7a:b9:58:27:2c:36:f8:99:25:1b:d1:e3:d2:35:5a:51:61:
        3a:c7:6a:49:80:58:a2:d9:83:7e:18:02:9e:0c:22:a6:fe:25:
        25:12:86:fd:cc:d0:ca:94:a0:4c:e6:c3:81:f8:aa:32:c7:13:
        0b:84:6b:f0:13:90:28:3f:1a:56:34:85:8a:a5:22:25:cc:45:
        92:2c:82:9c:28:42:78:67:a5:69:5e:e0:e4:7c:21:d3:c9:56:
        24:06:3d:ac:b2:e3:18:30:83:29:60:81:0f:31:08:26:75:f9:
        de:83:2c:51:f5:e8:73:87:4b:63:77:e8:17:ba:f8:32:94:ca:
        ed:e8:8d:46:5c:d1:ff:dc:04:cc:a4:08:09:c6:76:54:ac:f5:
        4f:89:a2:4b
-----BEGIN CERTIFICATE-----
MIIDTzCCAjegAwIBAgICEAwwDQYJKoZIhvcNAQELBQAwGzEZMBcGA1UEAwwQRGVt
byBSb3RhdGlvbiBDQTAeFw0yNTAyMTgxOTM3NDRaFw0yNjAzMDQxOTM3NDRaMBox
GDAWBgNVBAMMD2lpczEuZGVtby5sb2NhbDCCASIwDQYJKoZIhvcNAQEBBQADggEP
ADCCAQoCggEBAKGwnGdJUjQyV6QH1byCHIFXMNfcrxU+Fyikk/BpaOqx+Xeqw2OC
gSZ14cJpmMY2ZlVlsux2YDnvz/TS1drUsybnYFS1/n1iHPZ75+nfteYu1CxAko7d
Kps1NEyNdcN3HB81okDjsgf1GTYLrT1f2hV8xGu8cqD82zEr0LW3y0yFmQKBr7ZJ
a0phthZgkNGEWQF2XjPUoVGzsjKw2QLtfyY2V4y7Gsa9tm0HaBQqlV5h+2iKyRsY
9mYpzlWJgRX6z5qWvzt6HC8glj7YdrdZGUWNh8TKrk6IQajN11zbDNj8ggMfNz0F
NyMipWLekDJ0AuoIM5m1s9i2aLgAV/4iHLMCAwEAAaOBnTCBmjAJBgNVHRMEAjAA
MAsGA1UdDwQEAwIFoDATBgNVHSUEDDAKBggrBgEFBQcDATArBgNVHREEJDAigg9p
aXMxLmRlbW8ubG9jYWyCD2lpczIuZGVtby5sb2NhbDAdBgNVHQ4EFgQUfh4CMYQP
q+wyWuAYGJPlhhY5Uf8wHwYDVR0jBBgwFoAUqlM2AOja5hvUr+6k6ybmDjZ+DxIw
DQYJKoZIhvcNAQELBQADggEBAEmndIEuZ5NoEECdUfZBifcTe3ReivTswNo1/IYl
pMw1DX9QGJgm1oxa/ReJ30jDFH1k2cf2C9EQifC75ziVUg258KDKaPVzvhkcjnIE
rtXuUgJRnTMaToVXH9b06lieef4yENDfsSntwR+Lail6uVgnLDb4mSUb0ePSNVpR
YTrHakmAWKLZg34YAp4MIqb+JSUShv3M0MqUoEzmw4H4qjLHEwuEa/ATkCg/GlY0
hYqlIiXMRZIsgpwoQnhnpWle4OR8IdPJViQGPayy4xgwgylggQ8xCCZ1+d6DLFH1
6HOHS2N36Be6+DKUyu3ojUZc0f/cBMykCAnGdlSs9U+Joks=
-----END CERTIFICATE-----
