Certificate:
    Data:
        Version: 3 (0x2)
        Serial Number: 4113 (0x1011)
        Signature Algorithm: sha256WithRSAEncryption
        Issuer: CN=Demo Rotation CA
        Validity
            Not Before: Feb 19 18:39:32 2025 GMT
            Not After : Mar  5 18:39:32 2026 GMT
        Subject: CN=iis1.demo.local
        Subject Public Key Info:
            Public Key Algorithm: rsaEncryption
                Public-Key: (2048 bit)
                Modulus:
                    00:8d:30:dc:d0:c1:67:11:6a:bc:8a:10:89:c9:71:
                    6a:2a:71:68:53:58:c2:6e:d4:ea:e9:ae:95:28:a8:
                    42:ed:9d:b5:a4:8a:8c:11:03:a4:3e:af:29:87:18:
                    f1:f9:47:57:90:c6:86:28:bb:25:d6:79:da:5b:15:
                    4e:87:ed:37:d3:b8:fb:c6:d4:5f:09:b6:32:2d:d6:
                    64:49:fd:c7:45:87:4b:0b:5c:32:e2:42:fb:1f:37:
                    6c:e9:91:34:07:d3:30:73:07:b6:71:cb:7a:54:25:
                    01:c0:48:17:f4:f6:05:a8:5e:1c:82:0c:83:87:2b:
                    73:cf:03:90:76:ab:c0:8c:a2:db:e6:4a:01:93:8c:
                    db:49:78:6e:90:c4:72:5e:88:71:04:41:2e:bd:eb:
                    9f:b2:b2:9e:36:98:f4:7b:16:cb:f9:73:77:04:0b:
                    df:ce:e5:1f:d9:56:da:74:12:6e:9e:aa:54:91:42:
                    e7:1b:a0:ca:de:01:62:40:fb:00:40:86:1f:29:73:
                    4e:3f:f0:23:81:38:37:36:49:ef:7b:fc:1c:e7:e5:
                    5a:32:00:5b:ad:e7:57:21:cf:a7:81:e2:8d:50:8b:
                    a1:47:95:51:4d:9e:47:13:25:3e:ba:46:f9:50:cd:
                    ae:28:d9:2c:3b:87:f1:f1:c8:59:66:c5:30:c8:6d:
                    6f:27
                Exponent: 65537 (0x10001)
        X509v3 extensions:
            X509v3 Basic Constraints: 
                CA:FALSE
            X509v3 Key Usage: 
                Digital Signature, Key Encipherment
            X509v3 Extended Key Usage: 
                TLS Web Server Authentication
            X509v3 Subject Alternative Name: 
                DNS:iis1.demo.local, DNS:iis2.demo.local
            X509v3 Subject Key Identifier: 
                A3:67:30:99:4E:1E:F5:C7:54:B3:F5:D1:F6:38:48:1B:7D:F9:47:90
            X509v3 Authority Key Identifier: 
                AA:53:36:00:E8:DA:E6:1B:D4:AF:EE:A4:EB:26:E6:0E:36:7E:0F:12
    Signature Algorithm: sha256WithRSAEncryption
    Signature Value:
        92:de:4e:7f:d0:83:d4:f9:5e:4e:68:a8:d8:4a:e6:ff:7f:9f:
        78:21:6e:44:fd:0a:39:31:ab:c7:03:a6:4d:1b:f0:8a:7c:a5:
        fe:cd:f8:27:c7:0b:ae:5d:7b:73:06:3f:c4:62:f9:22:5a:e6:
        22:d8:c2:96:b3:c7:79:00:75:91:e7:9e:18:33:78:f0:5e:83:
        88:85:8d:6e:8e:ae:a0:ba:8c:c7:a9:d2:96:50:c9:25:f9:a4:
        f0:af:b3:9d:84:68:b7:09:87:90:53:1a:37:39:18:7e:10:8a:
        3d:c2:2a:6a:88:59:66:a6:1a:01:aa:b0:7e:a0:d3:46:5e:1f:
        e6:19:e4:9e:8b:ae:7c:42:df:5f:04:9e:76:83:cc:f3:25:e9:
        12:d3:31:a4:6f:1b:cd:95:6d:1d:be:a3:d6:4f:7c:c5:3f:df:
        40:46:ee:33:b6:5a:a4:66:65:ac:09:a2:f3:a8:2d:cd:d4:b1:
        d4:fa:dd:d3:89:37:ea:8f:17:07:d9:e6:45:e4:13:ab:aa:e5:
        b6:2b:62:69:47:83:39:9c:bd:bb:bd:45:e0:17:56:57:9b:d0:
        a7:7f:8a:c1:ee:3b:1d:83:19:5b:3f:cf:e9:6d:12:02:58:d6:
        8c:cf:9c:3f:29:3f:6a:91:61:71:4b:31:fb:8e:2b:fd:84:ee:
        0b:39:7b:1f
-----BEGIN CERTIFICATE-----
MIIDTzCCAjegAwIBAgICEBEwDQYJKoZIhvcNAQELBQAwGzEZMBcGA1UEAwwQRGVt
byBSb3RhdGlvbiBDQTAeFw0yNTAyMTkxODM5MzJaFw0yNjAzMDUxODM5MzJaMBox
GDAWBgNVBAMMD2lpczEuZGVtby5sb2NhbDCCASIwDQYJKoZIhvcNAQEBBQADggEP
ADCCAQoCggEBAI0w3NDBZxFqvIoQiclxaipxaFNYwm7U6umulSioQu2dtaSKjBED
pD6vKYcY8flHV5DGhii7JdZ52lsVToftN9O4+8bUXwm2Mi3WZEn9x0WHSwtcMuJC
+x83bOmRNAfTMHMHtnHLelQlAcBIF/T2BaheHIIMg4crc88DkHarwIyi2+ZKAZOM
20l4bpDEcl6IcQRBLr3rn7KynjaY9HsWy/lzdwQL387lH9lW2nQSbp6qVJFC5xug
yt4BYkD7AECGHylzTj/wI4E4NzZJ73v8HOflWjIAW63nVyHPp4HijVCLoUeVUU2e
RxMlPrpG+VDNrijZLDuH8fHIWWbFMMhtbycCAwEAAaOBnTCBmjAJBgNVHRMEAjAA
MAsGA1UdDwQEAwIFoDATBgNVHSUEDDAKBggrBgEFBQcDATArBgNVHREEJDAigg9p
aXMxLmRlbW8ubG9jYWyCD2lpczIuZGVtby5sb2NhbDAdBgNVHQ4EFgQUo2cwmU4e
9cdUs/XR9jhIG335R5AwHwYDVR0jBBgwFoAUqlM2AOja5hvUr+6k6ybmDjZ+DxIw
DQYJKoZIhvcNAQELBQADggEBAJLeTn/Qg9T5Xk5oqNhK5v9/n3ghbkT9Cjkxq8cD
pk0b8Ip8pf7N+CfHC65de3MGP8Ri+SJa5iLYwpazx3kAdZHnnhgzePBeg4iFjW6O
rqC6jMep0pZQySX5pPCvs52EaLcJh5BTGjc5GH4Qij3CKmqIWWamGgGqsH6g00Ze
H+YZ5J6LrnxC318EnnaDzPMl6RLTMaRvG82VbR2+o9ZPfMU/30BG7jO2WqRmZawJ
ovOoLc3UsdT63dOJN+qPFwfZ5kXkE6uq5bYrYmlHgzmcvbu9ReAXVleb0Kd/isHu
Ox2DGVs/z+ltEgJY1ozPnD8pP2qRYXFLMfuOK/2E7gs5ex8=
-----END CERTIFICATE-----
