Certificate:
    Data:
        Version: 3 (0x2)
        Serial Number: 4111 (0x100f)
        Signature Algorithm: sha256WithRSAEncryption
        Issuer: CN=Demo Rotation CA
        Validity
            Not Before: Feb 19 18:39:32 2025 GMT
            Not After : Mar  5 18:39:32 2026 GMT
        Subject: CN=web1.demo.local
        Subject Public Key Info:
            Public Key Algorithm: rsaEncryption
                Public-Key: (2048 bit)
                Modulus:
                    00:af:a0:54:22:d5:c7:5d:bf:1b:67:8c:fc:a4:86:
                    83:60:0d:a4:0b:60:67:29:39:26:ef:d0:f5:ca:2e:
                    47:ca:26:0f:52:ab:99:75:40:f3:80:58:72:08:d9:
                    c5:07:36:eb:e5:ca:a3:0f:96:f4:ed:19:37:29:d8:
                    10:9f:d9:f9:52:a3:4c:c6:2e:00:33:7b:e9:22:54:
                    79:26:14:2b:9a:e0:a0:1c:d7:36:dd:97:ff:ce:58:
                    b2:47:e5:e6:60:21:83:76:a3:09:a9:64:f2:2c:a2:
                    4f:de:49:71:6b:c1:56:c6:5b:df:79:d2:c2:a6:71:
                    1a:84:1b:57:9c:ed:d4:19:b3:17:51:3f:15:2c:c1:
                    5e:c0:3a:f2:de:d9:f7:6f:97:ba:66:d3:10:2e:91:
                    02:9a:cc:5e:ac:75:cc:59:cd:05:35:9f:80:1d:cb:
                    c4:16:4e:8e:c9:6f:e6:ab:c8:c9:2f:8e:72:b5:3f:
                    2f:3f:2d:dd:9d:63:fe:70:30:7f:88:75:9b:a1:db:
                    28:58:3c:49:59:71:6d:e4:dd:bc:66:2d:62:67:c5:
                    ca:9d:29:cf:3b:f9:89:d1:06:7b:ba:54:fb:03:e9:
                    7e:f9:94:3b:56:1d:f7:83:86:82:ed:30:88:61:ba:
                    1d:f3:50:a6:9b:a2:23:54:d7:ce:c3:a9:86:c9:65:
                    53:31
                Exponent: 65537 (0x10001)
        X509v3 extensions:
            X509v3 Basic Constraints: 
                CA:FALSE
            X509v3 Key Usage: 
                Digital Signature, Key Encipherment
            X509v3 Extended Key Usage: 
                TLS Web Server Authentication
            X509v3 Subject Alternative Name: 
                DNS:web1.demo.local, DNS:web2.demo.local
            X509v3 Subject Key Identifier: 
                5D:3E:CC:5A:77:AE:12:7F:FA:E0:93:B9:1B:7A:04:CD:19:92:10:61
            X509v3 Authority Key Identifier: 
                AA:53:36:00:E8:DA:E6:1B:D4:AF:EE:A4:EB:26:E6:0E:36:7E:0F:12
    Signature Algorithm: sha256WithRSAEncryption
    Signature Value:
        16:21:c0:83:95:4f:1a:a8:07:3b:d0:99:32:f7:7d:1d:1f:49:
        99:b0:b0:e9:95:fd:da:e1:b8:c4:be:cf:c7:b5:15:06:e9:ea:
        bf:e4:fa:94:46:be:72:2a:10:4e:32:76:30:5b:7d:ea:4b:ae:
        50:81:bb:bb:5e:bf:06:46:a2:d4:07:19:75:12:7e:a4:d7:dd:
        ef:52:89:ed:0d:94:96:ff:a6:3f:55:28:b3:6c:2b:cf:22:b5:
        5f:b4:f6:d8:1f:35:15:c3:d9:0d:f1:08:c9:91:f2:1e:9f:c6:
        10:ae:71:01:fa:25:73:35:15:5c:91:de:de:29:e9:bb:74:1b:
        1a:45:c2:a0:ad:31:ea:a1:45:d7:2b:62:0c:92:eb:fb:57:e1:
        91:70:cd:f2:9d:42:f4:07:5a:eb:1d:12:60:df:d5:04:c0:0a:
        66:54:f0:25:d6:0b:e0:38:49:27:aa:3e:86:1f:3a:08:17:1d:
        51:5d:1c:2a:f9:82:8c:f6:22:9a:5c:29:54:d8:fa:5c:eb:1c:
        d5:46:89:ee:a1:75:0e:5f:d2:f4:38:19:32:03:a2:eb:f2:0d:
        87:de:62:7e:3a:ef:38:ff:16:0b:2c:44:22:2e:0f:e3:75:67:
        a3:76:04:78:52:e4:fa:65:b0:a5:8c:36:4f:10:a2:90:aa:0d:
        88:71:45:9b
-----BEGIN CERTIFICATE-----
MIIDTzCCAjegAwIBAgICEA8wDQYJKoZIhvcNAQELBQAwGzEZMBcGA1UEAwwQRGVt
byBSb3RhdGlvbiBDQTAeFw0yNTAyMTkxODM5MzJaFw0yNjAzMDUxODM5MzJaMBox
GDAWBgNVBAMMD3dlYjEuZGVtby5sb2NhbDCCASIwDQYJKoZIhvcNAQEBBQADggEP
ADCCAQoCggEBAK+gVCLVx12/G2eM/KSGg2ANpAtgZyk5Ju/Q9couR8omD1KrmXVA
84BYcgjZxQc26+XKow+W9O0ZNynYEJ/Z+VKjTMYuADN76SJUeSYUK5rgoBzXNt2X
/85Yskfl5mAhg3ajCalk8iyiT95JcWvBVsZb33nSwqZxGoQbV5zt1BmzF1E/FSzB
XsA68t7Z92+XumbTEC6RAprMXqx1zFnNBTWfgB3LxBZOjslv5qvIyS+OcrU/Lz8t
3Z1j/nAwf4h1m6HbKFg8SVlxbeTdvGYtYmfFyp0pzzv5idEGe7pU+wPpfvmUO1Yd
94OGgu0wiGG6HfNQppuiI1TXzsOphsllUzECAwEAAaOBnTCBmjAJBgNVHRMEAjAA
MAsGA1UdDwQEAwIFoDATBgNVHSUEDDAKBggrBgEFBQcDATArBgNVHREEJDAigg93
ZWIxLmRlbW8ubG9jYWyCD3dlYjIuZGVtby5sb2NhbDAdBgNVHQ4EFgQUXT7MWneu
En/64JO5G3oEzRmSEGEwHwYDVR0jBBgwFoAUqlM2AOja5hvUr+6k6ybmDjZ+DxIw
DQYJKoZIhvcNAQELBQADggEBABYhwIOVTxqoBzvQmTL3fR0fSZmwsOmV/drhuMS+
z8e1FQbp6r/k+pRGvnIqEE4ydjBbfepLrlCBu7tevwZGotQHGXUSfqTX3e9Sie0N
lJb/pj9VKLNsK88itV+09tgfNRXD2Q3xCMmR8h6fxhCucQH6JXM1FVyR3t4p6bt0
GxpFwqCtMeqhRdcrYgyS6/tX4ZFwzfKdQvQHWusdEmDf1QTACmZU8CXWC+A4SSeq
PoYfOggXHVFdHCr5goz2IppcKVTY+lzrHNVGie6hdQ5f0vQ4GTIDouvyDYfeYn46
7zj/FgssRCIuD+N1Z6N2BHhS5PplsKWMNk8QopCqDYhxRZs=
-----END CERTIFICATE-----
