Certificate:
    Data:
        Version: 3 (0x2)
        Serial Number: 4107 (0x100b)
        Signature Algorithm: sha256WithRSAEncryption
        Issuer: CN=Demo Rotation CA
        Validity
            Not Before: Feb 18 19:37:44 2025 GMT
            Not After : Mar  4 19:37:44 2026 GMT
        Subject: CN=web1.demo.local
        Subject Public Key Info:
            Public Key Algorithm: rsaEncryption
                Public-Key: (2048 bit)
                Modulus:
                    00:a6:5a:c8:8a:1a:74:5a:11:42:5e:1a:77:90:00:
                    cd:bd:79:dc:07:c4:45:6d:9e:74:35:d6:0e:af:73:
                    76:da:92:ac:91:fe:2b:2c:75:3d:4e:47:a8:7e:b5:
                    f7:5e:17:7c:f4:54:08:10:17:5f:08:e0:ec:69:1a:
                    2c:df:80:0a:e5:3b:2f:85:95:18:d7:f5:15:e7:7d:
                    8c:ef:c9:20:40:ba:fa:bf:d6:f2:7f:d5:4c:22:e9:
                    50:fb:10:dd:23:df:cb:3e:d4:57:85:43:a3:0a:f4:
                    39:b9:b6:73:34:08:d2:fe:6d:26:2e:ad:98:54:2b:
                    63:0b:2f:8d:91:7e:c8:3f:09:b1:b2:09:b0:fc:8c:
                    3a:86:cf:ea:19:1b:f2:5e:ff:81:1c:4e:15:bc:eb:
                    6b:29:f4:9a:c9:81:29:87:93:01:26:8e:6a:f7:65:
                    29:26:2f:f6:f0:43:ca:5b:e6:a3:30:8c:da:5f:af:
                    7a:72:47:c8:ae:fd:32:8b:c7:c6:01:74:f7:73:4c:
                    b8:f2:b9:3d:0d:3e:6a:87:ed:96:6b:df:35:20:89:
                    da:8c:b4:ba:07:9c:5c:49:cf:49:7e:10:20:30:76:
                    bf:84:e7:d7:08:2d:86:66:f0:1d:fa:13:f6:80:11:
                    6b:eb:c7:04:54:1c:98:1a:b5:02:dc:be:de:58:12:
                    34:4b
                Exponent: 65537 (0x10001)
        X509v3 extensions:
            X509v3 Basic Constraints: 
                CA:FALSE
            X509v3 Key Usage: 
                Digital Signature, Key Encipherment
            X509v3 Extended Key Usage: 
                TLS Web Server Authentication
            X509v3 Subject Alternative Name: 
                DNS:web1.demo.local, DNS:web2.demo.local
            X509v3 Subject Key Identifier: 
                7E:68:1E:4B:09:70:40:06:61:3D:B5:7D:59:AC:B9:55:E9:47:EA:07
            X509v3 Authority Key Identifier: 
                AA:53:36:00:E8:DA:E6:1B:D4:AF:EE:A4:EB:26:E6:0E:36:7E:0F:12
    Signature Algorithm: sha256WithRSAEncryption
    Signature Value:
        87:07:a3:19:7f:09:9a:05:ac:90:bf:14:41:c5:c6:da:7e:e0:
        54:c1:fe:d9:77:a7:71:38:44:b6:6e:df:1c:5c:73:30:0e:64:
        87:71:10:c9:36:27:b1:5d:46:52:9e:e7:0f:3e:94:fb:71:85:
        27:46:69:56:f2:83:a0:e5:39:da:16:df:c0:1c:cc:48:07:5b:
        d0:d5:68:aa:e0:22:86:93:31:63:01:16:fd:59:33:85:c4:1c:
        db:1b:a5:97:3c:7d:a6:55:17:f5:17:f4:8b:82:1c:34:2f:29:
        16:8b:b6:59:8f:a9:e9:66:e0:e3:00:91:ad:ec:41:64:66:72:
        04:42:91:e0:b2:d3:22:32:b4:06:f3:f1:2c:84:14:cd:4f:ad:
        69:dd:35:44:88:40:b0:32:69:bb:b1:2c:f3:33:48:93:6c:e8:
        a1:33:9d:10:3b:20:f6:43:b3:cc:5f:75:8d:d3:cb:a6:c6:b8:
        73:7a:29:f7:29:76:aa:2b:b5:e1:32:63:90:2c:aa:ca:7c:4b:
        1e:21:bb:cf:78:bb:ee:d3:e7:3f:b6:4f:ae:f5:28:c5:c8:8d:
        03:52:95:0b:8a:75:e2:c8:f6:d2:a7:3e:22:9b:89:a2:73:9d:
        80:c5:a9:f6:d5:a5:84:8f:a4:80:ad:13:c8:50:74:0c:1f:c6:
        ff:81:e2:75
-----BEGIN CERTIFICATE-----
MIIDTzCCAjegAwIBAgICEAswDQYJKoZIhvcNAQELBQAwGzEZMBcGA1UEAwwQRGVt
byBSb3RhdGlvbiBDQTAeFw0yNTAyMTgxOTM3NDRaFw0yNjAzMDQxOTM3NDRaMBox
GDAWBgNVBAMMD3dlYjEuZGVtby5sb2NhbDCCASIwDQYJKoZIhvcNAQEBBQADggEP
ADCCAQoCggEBAKZayIoadFoRQl4ad5AAzb153AfERW2edDXWDq9zdtqSrJH+Kyx1
PU5HqH61914XfPRUCBAXXwjg7GkaLN+ACuU7L4WVGNf1Fed9jO/JIEC6+r/W8n/V
TCLpUPsQ3SPfyz7UV4VDowr0Obm2czQI0v5tJi6tmFQrYwsvjZF+yD8JsbIJsPyM
OobP6hkb8l7/gRxOFbzrayn0msmBKYeTASaOavdlKSYv9vBDylvmozCM2l+venJH
yK79MovHxgF093NMuPK5PQ0+aoftlmvfNSCJ2oy0ugecXEnPSX4QIDB2v4Tn1wgt
hmbwHfoT9oARa+vHBFQcmBq1Aty+3lgSNEsCAwEAAaOBnTCBmjAJBgNVHRMEAjAA
MAsGA1UdDwQEAwIFoDATBgNVHSUEDDAKBggrBgEFBQcDATArBgNVHREEJDAigg93
ZWIxLmRlbW8ubG9jYWyCD3dlYjIuZGVtby5sb2NhbDAdBgNVHQ4EFgQUfmgeSwlw
QAZhPbV9Way5VelH6gcwHwYDVR0jBBgwFoAUqlM2AOja5hvUr+6k6ybmDjZ+DxIw
DQYJKoZIhvcNAQELBQADggEBAIcHoxl/CZoFrJC/FEHFxtp+4FTB/tl3p3E4RLZu
3xxcczAOZIdxEMk2J7FdRlKe5w8+lPtxhSdGaVbyg6DlOdoW38AczEgHW9DVaKrg
IoaTMWMBFv1ZM4XEHNsbpZc8faZVF/UX9IuCHDQvKRaLtlmPqelm4OMAka3sQWRm
cgRCkeCy0yIytAbz8SyEFM1PrWndNUSIQLAyabuxLPMzSJNs6KEznRA7IPZDs8xf
dY3Ty6bGuHN6KfcpdqorteEyY5Asqsp8Sx4hu894u+7T5z+2T671KMXIjQNSlQuK
deLI9tKnPiKbiaJznYDFqfbVpYSPpICtE8hQdAwfxv+B4nU=
-----END CERTIFICATE-----
