Certificate:
    Data:
        Version: 3 (0x2)
        Serial Number: 4112 (0x1010)
        Signature Algorithm: sha256WithRSAEncryption
        Issuer: CN=Demo Rotation CA
        Validity
            Not Before: Feb 19 18:39:32 2025 GMT
            Not After : Mar  5 18:39:32 2026 GMT
        Subject: CN=webdev1.demo.local
        Subject Public Key Info:
            Public Key Algorithm: rsaEncryption
                Public-Key: (2048 bit)
                Modulus:
                    00:c6:15:9d:3e:d7:8b:88:23:9a:25:c9:af:3a:89:
                    6c:f4:cd:16:3b:33:16:3f:1d:c8:51:01:8f:1d:ea:
                    e4:14:8e:3d:08:60:77:f6:ac:c2:0d:23:ff:4c:19:
                    66:f0:d2:5d:13:ce:91:ee:7f:c4:37:98:86:b0:69:
                    1c:05:63:21:62:d0:62:c7:f7:99:92:e2:b7:fb:dc:
                    b5:fa:be:ff:82:5b:dc:15:a6:7c:8f:56:58:3e:44:
                    0e:8d:e4:c1:14:ae:c2:5d:47:02:f9:f5:02:28:ee:
                    9d:09:69:01:c0:41:fd:a0:53:e9:06:7f:87:2c:12:
                    5c:3d:a5:ad:d8:19:e9:5c:b4:c0:9c:39:56:43:61:
                    91:52:50:25:c2:c3:58:7b:8d:09:bb:33:e6:e9:f9:
                    bf:3d:04:9a:10:68:d8:fe:90:3d:bb:68:92:04:41:
                    be:c2:79:f5:00:e8:e1:1e:82:35:58:bc:cd:88:d3:
                    8e:7c:ba:51:bd:56:b4:d4:38:4a:1b:d4:f3:f6:4a:
                    c9:06:84:7a:b7:8a:6f:22:df:93:a3:a9:9b:50:2d:
                    c2:b8:d5:ad:6d:ee:31:00:da:0e:0e:be:9b:7d:75:
                    cf:83:fb:35:4f:18:d8:ab:21:26:53:4f:c9:24:7e:
                    14:7a:04:d8:7b:9c:8d:8f:07:f7:fe:45:2b:9c:d8:
                    0b:81
                Exponent: 65537 (0x10001)
        X509v3 extensions:
            X509v3 Basic Constraints: 
                CA:FALSE
            X509v3 Key Usage: 
                Digital Signature, Key Encipherment
            X509v3 Extended Key Usage: 
                TLS Web Server Authentication
            X509v3 Subject Alternative Name: 
                DNS:webdev1.demo.local, DNS:webdev2.demo.local
            X509v3 Subject Key Identifier: 
                AB:8E:E7:65:CA:C2:A3:18:59:FA:BD:09:14:72:B4:B9:84:AA:A8:CD
            X509v3 Authority Key Identifier: 
                AA:53:36:00:E8:DA:E6:1B:D4:AF:EE:A4:EB:26:E6:0E:36:7E:0F:12
    Signature Algorithm: sha256WithRSAEncryption
    Signature Value:
        29:35:80:f4:4c:2a:45:e3:ad:8b:e5:66:fc:fc:d0:72:3e:83:
        1a:b3:01:e6:58:4c:a5:ab:0d:79:1e:c0:84:10:83:6d:d7:d6:
        ea:93:13:b0:18:cb:92:d3:d1:0c:8a:45:ed:f9:e5:27:c5:b5:
        18:22:42:cb:c3:08:28:eb:cc:1e:fb:18:3f:08:3d:d0:92:00:
        ed:75:4e:55:c3:07:4f:4c:21:eb:c3:6b:ef:91:ea:e4:9d:d0:
        c4:63:ee:7c:b1:4e:93:62:bd:d3:39:c6:c6:aa:fc:7b:a5:8a:
        94:5e:b9:45:e8:ad:75:10:6b:83:2b:67:2c:30:82:61:e7:e9:
        5d:ec:08:8d:9d:ac:fd:79:6f:50:5c:22:d0:cb:7d:42:02:35:
        3e:ca:91:ff:5d:9d:13:02:fb:d3:0a:bc:b8:e5:ab:c9:22:47:
        c2:58:b8:b0:75:cf:4a:db:76:eb:90:7b:ba:eb:04:1f:fe:a9:
        a3:56:8a:18:2f:0e:0b:69:78:56:a8:ef:68:68:0e:42:ef:61:
        33:12:da:60:0c:e3:84:3e:b4:be:ce:b2:ac:d8:58:75:30:c0:
        c7:cb:86:5f:6c:28:d8:a9:3f:d1:b4:02:bb:43:63:fd:fa:17:
        a3:75:8d:23:2b:7b:4f:1c:e9:31:a8:b4:a6:13:ab:4a:bd:cc:
        08:09:ab:f0
-----BEGIN CERTIFICATE-----
MIIDWDCCAkCgAwIBAgICEBAwDQYJKoZIhvcNAQELBQAwGzEZMBcGA1UEAwwQRGVt
byBSb3RhdGlvbiBDQTAeFw0yNTAyMTkxODM5MzJaFw0yNjAzMDUxODM5MzJaMB0x
GzAZBgNVBAMMEndlYmRldjEuZGVtby5sb2NhbDCCASIwDQYJKoZIhvcNAQEBBQAD
ggEPADCCAQoCggEBAMYVnT7Xi4gjmiXJrzqJbPTNFjszFj8dyFEBjx3q5BSOPQhg
d/aswg0j/0wZZvDSXRPOke5/xDeYhrBpHAVjIWLQYsf3mZLit/vctfq+/4Jb3BWm
fI9WWD5EDo3kwRSuwl1HAvn1AijunQlpAcBB/aBT6QZ/hywSXD2lrdgZ6Vy0wJw5
VkNhkVJQJcLDWHuNCbsz5un5vz0EmhBo2P6QPbtokgRBvsJ59QDo4R6CNVi8zYjT
jny6Ub1WtNQ4ShvU8/ZKyQaEereKbyLfk6Opm1AtwrjVrW3uMQDaDg6+m311z4P7
NU8Y2KshJlNPySR+FHoE2HucjY8H9/5FK5zYC4ECAwEAAaOBozCBoDAJBgNVHRME
AjAAMAsGA1UdDwQEAwIFoDATBgNVHSUEDDAKBggrBgEFBQcDATAxBgNVHREEKjAo
ghJ3ZWJkZXYxLmRlbW8ubG9jYWyCEndlYmRldjIuZGVtby5sb2NhbDAdBgNVHQ4E
FgQUq47nZcrCoxhZ+r0JFHK0uYSqqM0wHwYDVR0jBBgwFoAUqlM2AOja5hvUr+6k
6ybmDjZ+DxIwDQYJKoZIhvcNAQELBQADggEBACk1gPRMKkXjrYvlZvz80HI+gxqz
AeZYTKWrDXkewIQQg23X1uqTE7AYy5LT0QyKRe355SfFtRgiQsvDCCjrzB77GD8I
PdCSAO11TlXDB09MIevDa++R6uSd0MRj7nyxTpNivdM5xsaq/HulipReuUXorXUQ
a4MrZywwgmHn6V3sCI2drP15b1BcItDLfUICNT7Kkf9dnRMC+9MKvLjlq8kiR8JY
uLB1z0rbduuQe7rrBB/+qaNWihgvDgtpeFao72hoDkLvYTMS2mAM44Q+tL7OsqzY
WHUwwMfLhl9sKNipP9G0ArtDY/36F6N1jSMre08c6TGotKYTq0q9zAgJq/A=
-----END CERTIFICATE-----
