Certificate:
    Data:
        Version: 3 (0x2)
        Serial Number: 4116 (0x1014)
        Signature Algorithm: sha256WithRSAEncryption
        Issuer: CN=Demo Rotation CA
        Validity
            Not Before: Feb 19 18:39:32 2026 GMT
            Not After : Feb 19 18:39:32 2027 GMT
        Subject: CN=iis1.demo.local
        Subject Public Key Info:
            Public Key Algorithm: rsaEncryption
                Public-Key: (2048 bit)
                Modulus:
                    00:df:92:0b:12:ea:06:55:c0:34:79:1e:1f:a0:01:
                    5f:e0:66:46:f8:37:90:cb:9c:65:e3:2c:a9:b5:fd:
                    46:c7:81:60:42:ea:e0:26:70:65:51:21:04:4e:7c:
                    9b:4f:e1:3b:07:c1:d2:d0:17:43:d2:49:37:10:a7:
                    4a:a2:21:6c:21:03:11:c6:7b:36:1b:32:19:ec:2d:
                    65:3e:2c:6b:24:8f:57:63:5d:8f:6c:6d:4c:56:cb:
                    05:90:2f:6b:eb:af:d4:48:ad:00:24:04:05:03:b5:
                    65:b3:7c:80:2b:e3:86:fd:25:fe:3f:45:c3:af:4b:
                    14:f6:0a:05:ff:94:01:ec:f3:52:0e:fb:25:25:72:
                    22:20:eb:db:40:5a:36:e0:d4:e9:b2:bf:07:8a:e6:
                    30:9d:b7:9b:c4:18:ea:b2:0b:81:23:e4:d0:bd:de:
                    26:d1:cd:de:ab:04:f0:3c:84:32:ba:64:58:07:6a:
                    7b:88:18:8b:8c:a1:06:1b:70:81:86:67:a6:b1:d5:
                    b6:d0:57:25:f1:23:82:50:d6:58:5f:6b:74:c2:7f:
                    22:d7:66:11:8d:eb:60:e5:25:ad:7e:60:c0:b9:15:
                    e2:70:7d:54:12:be:a4:d2:0d:df:a6:2b:7c:8f:5f:
                    b8:a0:67:96:eb:f1:b4:c8:22:a6:fa:60:7f:43:b1:
                    27:d5
                Exponent: 65537 (0x10001)
        X509v3 extensions:
            X509v3 Basic Constraints: 
                CA:FALSE
            X509v3 Key Usage: 
                Digital Signature, Key Encipherment
            X509v3 Extended Key Usage: 
                TLS Web Server Authentication
            X509v3 Subject Alternative Name: 
                DNS:iis1.demo.local, DNS:iis2.demo.local
            X509v3 Subject Key Identifier: 
                9A:F7:5E:6C:67:89:C8:AA:78:25:60:E2:D3:87:1D:C0:9F:7C:62:BD
            X509v3 Authority Key Identifier: 
                AA:53:36:00:E8:DA:E6:1B:D4:AF:EE:A4:EB:26:E6:0E:36:7E:0F:12
    Signature Algorithm: sha256WithRSAEncryption
    Signature Value:
        97:5e:7a:43:bb:f3:7e:3b:db:88:bd:a2:28:6b:69:0a:f8:e0:
        0d:cb:e1:80:56:a5:4b:61:4c:3a:30:93:ff:18:86:1a:54:84:
        3f:54:6a:b8:ba:49:c5:7d:5f:cd:25:2d:78:3c:98:85:b1:77:
        6f:b9:91:67:42:5f:c1:1d:6a:2a:e7:a2:8d:15:8f:c6:bb:c8:
        56:16:fd:fc:07:d8:02:9f:67:ff:12:8b:f5:df:c2:af:d8:0d:
        80:c2:d4:95:6f:9b:da:22:e7:7a:24:82:19:44:4e:9c:b6:1e:
        b0:d9:42:84:da:e1:9d:55:27:3c:d6:0f:24:7a:64:b9:98:3b:
        14:77:0d:29:10:aa:35:86:8b:da:2c:39:63:a7:2a:61:3d:ab:
        8a:e5:2a:5e:20:80:d4:54:44:ae:f9:83:3e:97:6f:03:1f:8f:
        ad:1d:e7:b9:f6:d6:3e:a0:10:32:be:21:a1:f9:04:37:d6:c0:
        81:c7:9e:39:3f:fc:5d:f4:be:6c:cd:36:f5:b8:d0:2a:b3:02:
        c1:2e:38:ca:64:71:62:87:e7:9a:87:e1:31:0c:0f:ec:f6:78:
        46:35:6f:54:79:91:a5:bc:99:55:42:3d:68:b7:c7:35:92:18:
        4b:90:5c:7c:79:19:c1:1a:76:72:9a:58:e6:7d:80:dd:bc:7e:
        26:28:cd:18
-----BEGIN CERTIFICATE-----
MIIDTzCCAjegAwIBAgICEBQwDQYJKoZIhvcNAQELBQAwGzEZMBcGA1UEAwwQRGVt
byBSb3RhdGlvbiBDQTAeFw0yNjAyMTkxODM5MzJaFw0yNzAyMTkxODM5MzJaMBox
GDAWBgNVBAMMD2lpczEuZGVtby5sb2NhbDCCASIwDQYJKoZIhvcNAQEBBQADggEP
ADCCAQoCggEBAN+SCxLqBlXANHkeH6ABX+BmRvg3kMucZeMsqbX9RseBYELq4CZw
ZVEhBE58m0/hOwfB0tAXQ9JJNxCnSqIhbCEDEcZ7NhsyGewtZT4saySPV2Ndj2xt
TFbLBZAva+uv1EitACQEBQO1ZbN8gCvjhv0l/j9Fw69LFPYKBf+UAezzUg77JSVy
IiDr20BaNuDU6bK/B4rmMJ23m8QY6rILgSPk0L3eJtHN3qsE8DyEMrpkWAdqe4gY
i4yhBhtwgYZnprHVttBXJfEjglDWWF9rdMJ/ItdmEY3rYOUlrX5gwLkV4nB9VBK+
pNIN36YrfI9fuKBnluvxtMgipvpgf0OxJ9UCAwEAAaOBnTCBmjAJBgNVHRMEAjAA
MAsGA1UdDwQEAwIFoDATBgNVHSUEDDAKBggrBgEFBQcDATArBgNVHREEJDAigg9p
aXMxLmRlbW8ubG9jYWyCD2lpczIuZGVtby5sb2NhbDAdBgNVHQ4EFgQUmvdebGeJ
yKp4JWDi04cdwJ98Yr0wHwYDVR0jBBgwFoAUqlM2AOja5hvUr+6k6ybmDjZ+DxIw
DQYJKoZIhvcNAQELBQADggEBAJdeekO7834724i9oihraQr44A3L4YBWpUthTDow
k/8YhhpUhD9Uari6ScV9X80lLXg8mIWxd2+5kWdCX8Edairnoo0Vj8a7yFYW/fwH
2AKfZ/8Si/Xfwq/YDYDC1JVvm9oi53okghlETpy2HrDZQoTa4Z1VJzzWDyR6ZLmY
OxR3DSkQqjWGi9osOWOnKmE9q4rlKl4ggNRURK75gz6XbwMfj60d57n21j6gEDK+
IaH5BDfWwIHHnjk//F30vmzNNvW40CqzAsEuOMpkcWKH55qH4TEMD+z2eEY1b1R5
kaW8mVVCPWi3xzWSGEuQXHx5GcEadnKaWOZ9gN28fiYozRg=
-----END CERTIFICATE-----
