Certificate:
    Data:
        Version: 3 (0x2)
        Serial Number: 4110 (0x100e)
        Signature Algorithm: sha256WithRSAEncryption
        Issuer: CN=Demo Rotation CA
        Validity
            Not Before: Feb 18 19:37:44 2026 GMT
            Not After : Feb 18 19:37:44 2027 GMT
        Subject: CN=iis1.demo.local
        Subject Public Key Info:
            Public Key Algorithm: rsaEncryption
                Public-Key: (2048 bit)
                Modulus:
                    00:a1:56:ef:22:69:ca:d2:53:53:92:1d:cf:31:09:
                    72:23:62:b8:b5:a6:9c:6f:24:36:57:f4:a5:93:d8:
                    13:e1:56:87:00:d8:80:26:d2:8d:bd:cf:a8:f2:0b:
                    5b:2b:e7:a6:c7:e4:c9:cf:c3:e7:ec:7f:4a:ba:83:
                    62:57:6b:39:62:7c:11:49:45:d8:48:a9:93:b4:36:
                    f6:43:44:92:54:6a:be:55:26:79:03:5a:ca:3c:41:
                    c2:fc:cd:f8:23:e0:ec:ab:a5:3e:26:bd:4f:85:71:
                    f9:b6:cb:e6:23:d2:6c:f4:f6:a1:15:d8:8b:bd:58:
                    3b:ed:59:d7:5e:ba:46:63:ba:44:bc:e1:59:b9:db:
                    44:e4:8f:66:1c:1d:a6:65:06:39:87:f0:b3:e5:86:
                    cd:97:35:b2:07:69:92:91:9a:cf:97:37:2d:40:0c:
                    4c:f3:51:1f:7f:50:f3:21:cf:53:a8:27:84:78:8a:
                    16:d5:93:0b:83:dd:35:e2:cd:6a:b1:2b:8e:3e:7a:
                    3e:b7:38:fa:50:f8:9c:80:c5:33:d5:e7:ff:a2:e1:
                    22:64:37:5e:0b:c9:78:1e:f3:49:97:5c:6b:78:67:
                    3e:d6:be:44:44:19:0e:3b:5f:9e:ac:60:73:85:03:
                    60:36:fa:5b:4c:9c:bc:f2:d1:33:1b:02:13:9b:1d:
                    c6:1b
                Exponent: 65537 (0x10001)
        X509v3 extensions:
            X509v3 Basic Constraints: 
                CA:FALSE
            X509v3 Key Usage: 
                Digital Signature, Key Encipherment
            X509v3 Extended Key Usage: 
                TLS Web Server Authentication
            X509v3 Subject Alternative Name: 
                DNS:iis1.demo.local, DNS:iis2.demo.local
            X509v3 Subject Key Identifier: 
                A0:05:26:6A:73:83:35:A6:75:FF:FF:E8:26:53:40:FB:D6:D8:34:E1
            X509v3 Authority Key Identifier: 
                AA:53:36:00:E8:DA:E6:1B:D4:AF:EE:A4:EB:26:E6:0E:36:7E:0F:12
    Signature Algorithm: sha256WithRSAEncryption
    Signature Value:
        2e:af:43:a1:a1:6d:87:a9:a6:2e:46:8a:f4:36:54:38:99:ea:
        63:ed:1d:5e:5c:b6:da:3e:05:39:57:19:82:2b:ed:18:27:ac:
        a2:c8:f3:04:b3:73:81:ef:30:75:53:6f:3b:cf:66:1b:69:0c:
        8f:ef:f4:e8:e1:3c:38:0b:95:71:58:3c:4c:0c:25:7f:af:d8:
        ec:53:03:c4:f2:e3:55:fc:87:2d:80:b2:84:56:9f:a8:96:e3:
        c6:ef:37:82:ee:09:4c:6e:fb:66:ef:80:43:e5:da:a3:3a:b7:
        3f:3b:4f:32:b1:ac:8d:92:cc:5c:80:cf:69:5b:3f:a8:c4:4b:
        f4:bb:26:52:ad:83:5f:fe:d5:2c:ed:74:13:cf:64:a8:13:c4:
        1d:c0:26:a0:7a:8a:7e:c7:b9:16:32:77:d3:0c:88:55:d1:46:
        06:14:2c:15:02:fe:05:f6:20:92:51:31:99:a6:d9:d2:5f:1e:
        ab:c5:64:c0:6a:f7:f5:15:43:a8:ae:97:45:0b:da:e8:e5:00:
        ca:66:3d:14:79:6d:37:36:75:d9:67:0d:2e:7c:7a:d4:fb:08:
        21:0d:8a:9d:7d:3e:88:e2:37:2b:d8:13:54:68:7f:a3:42:62:
        e6:93:a5:bb:db:a4:e6:29:1a:7f:5a:cb:eb:81:e7:bc:79:f9:
        81:83:41:37
-----BEGIN CERTIFICATE-----
MIIDTzCCAjegAwIBAgICEA4wDQYJKoZIhvcNAQELBQAwGzEZMBcGA1UEAwwQRGVt
byBSb3RhdGlvbiBDQTAeFw0yNjAyMTgxOTM3NDRaFw0yNzAyMTgxOTM3NDRaMBox
GDAWBgNVBAMMD2lpczEuZGVtby5sb2NhbDCCASIwDQYJKoZIhvcNAQEBBQADggEP
ADCCAQoCggEBAKFW7yJpytJTU5IdzzEJciNiuLWmnG8kNlf0pZPYE+FWhwDYgCbS
jb3PqPILWyvnpsfkyc/D5+x/SrqDYldrOWJ8EUlF2Eipk7Q29kNEklRqvlUmeQNa
yjxBwvzN+CPg7KulPia9T4Vx+bbL5iPSbPT2oRXYi71YO+1Z1166RmO6RLzhWbnb
ROSPZhwdpmUGOYfws+WGzZc1sgdpkpGaz5c3LUAMTPNRH39Q8yHPU6gnhHiKFtWT
C4PdNeLNarErjj56Prc4+lD4nIDFM9Xn/6LhImQ3XgvJeB7zSZdca3hnPta+REQZ
Djtfnqxgc4UDYDb6W0ycvPLRMxsCE5sdxhsCAwEAAaOBnTCBmjAJBgNVHRMEAjAA
MAsGA1UdDwQEAwIFoDATBgNVHSUEDDAKBggrBgEFBQcDATArBgNVHREEJDAigg9p
aXMxLmRlbW8ubG9jYWyCD2lpczIuZGVtby5sb2NhbDAdBgNVHQ4EFgQUoAUmanOD
NaZ1///oJlNA+9bYNOEwHwYDVR0jBBgwFoAUqlM2AOja5hvUr+6k6ybmDjZ+DxIw
DQYJKoZIhvcNAQELBQADggEBAC6vQ6GhbYeppi5GivQ2VDiZ6mPtHV5ctto+BTlX
GYIr7RgnrKLI8wSzc4HvMHVTbzvPZhtpDI/v9OjhPDgLlXFYPEwMJX+v2OxTA8Ty
41X8hy2AsoRWn6iW48bvN4LuCUxu+2bvgEPl2qM6tz87TzKxrI2SzFyAz2lbP6jE
S/S7JlKtg1/+1SztdBPPZKgTxB3AJqB6in7HuRYyd9MMiFXRRgYULBUC/gX2IJJR
MZmm2dJfHqvFZMBq9/UVQ6iul0UL2ujlAMpmPRR5bTc2ddlnDS58etT7CCENip19
PojiNyvYE1Rof6NCYuaTpbvbpOYpGn9ay+uB57x5+YGDQTc=
-----END CERTIFICATE-----
