Certificate:
    Data:
        Version: 3 (0x2)
        Serial Number: 4109 (0x100d)
        Signature Algorithm: sha256WithRSAEncryption
        Issuer: CN=Demo Rotation CA
        Validity
            Not Before: Feb 18 19:37:44 2026 GMT
            Not After : Feb 18 19:37:44 2027 GMT
        Subject: CN=web1.demo.local
        Subject Public Key Info:
            Public Key Algorithm: rsaEncryption
                Public-Key: (2048 bit)
                Modulus:
                    00:9c:28:d3:f4:94:26:fc:96:01:9f:0b:b7:48:d7:
                    6f:0b:c3:66:27:89:c2:0b:f2:46:bb:a0:2d:56:91:
                    fa:17:04:32:44:2a:ef:1f:8c:c6:f2:ad:40:a1:f8:
                    d6:96:44:c1:c5:1e:14:b6:5e:1b:f4:8c:89:87:a0:
                    c8:3e:2a:de:e4:26:47:86:a4:87:75:f8:7f:37:9c:
                    82:13:80:4d:96:3d:7d:3d:78:15:18:7b:79:dc:4f:
                    31:98:59:dc:d1:b1:be:65:5e:02:b8:70:0d:9b:41:
                    23:28:8d:e3:ca:ad:ff:99:0e:e8:53:ee:65:f5:01:
                    2a:d7:39:49:ea:f2:b7:fc:ee:e5:71:96:7b:a3:79:
                    d0:73:34:aa:0c:6e:0a:c6:60:a9:a4:8c:eb:9d:5b:
                    d2:f2:9d:db:ab:83:10:a9:ae:c0:5a:4a:80:4a:ef:
                    e9:08:1f:e8:22:b1:f6:17:07:7f:c1:2a:df:be:77:
                    ee:f4:97:b1:75:fe:e7:14:39:6f:55:d6:55:fa:51:
                    91:74:db:d3:88:e2:3e:98:94:ce:82:64:26:74:8b:
                    5b:a6:dd:81:c4:a0:3f:cb:34:79:37:94:5c:2a:f3:
                    15:27:6f:ab:14:fa:94:2e:82:d5:e2:2e:12:31:64:
                    f6:e0:2e:b5:3b:86:db:13:2f:2c:5c:63:b7:60:d5:
                    fe:cd
                Exponent: 65537 (0x10001)
        X509v3 extensions:
            X509v3 Basic Constraints: 
                CA:FALSE
            X509v3 Key Usage: 
                Digital Signature, Key Encipherment
            X509v3 Extended Key Usage: 
                TLS Web Server Authentication
            X509v3 Subject Alternative Name: 
                DNS:web1.demo.local, DNS:web2.demo.local
            X509v3 Subject Key Identifier: 
                F4:FB:BD:DA:5F:94:C4:16:A1:CC:F4:81:C5:17:53:E0:61:EA:CD:66
            X509v3 Authority Key Identifier: 
                AA:53:36:00:E8:DA:E6:1B:D4:AF:EE:A4:EB:26:E6:0E:36:7E:0F:12
    Signature Algorithm: sha256WithRSAEncryption
    Signature Value:
        71:66:1f:fd:39:a3:25:19:74:45:d2:b5:98:8c:c6:f8:a1:5d:
        ad:d5:25:4b:2c:47:ce:4e:ba:ff:f6:4b:f6:01:ee:bf:7f:69:
        80:60:4d:73:43:e7:49:e2:49:f9:f5:79:a5:f6:1f:b1:fd:f4:
        86:cb:a0:2b:e9:0a:54:45:54:5c:aa:97:03:c4:c9:13:0e:0e:
        b2:16:d3:3c:aa:88:13:77:c3:3d:2b:a8:02:4d:7b:ae:65:2b:
        a1:92:d6:e8:ad:24:f7:d2:bf:f6:8e:ba:bd:58:f4:d9:b8:7c:
        ad:5e:d0:c7:4b:df:aa:3e:e0:68:47:50:e3:2c:2c:99:14:10:
        a4:84:23:1e:4b:56:85:c8:17:6d:6b:b5:c6:93:7b:b9:85:70:
        1a:c7:a6:29:92:ff:4f:8d:23:d9:f2:db:f9:0e:91:20:78:14:
        45:30:3e:dd:06:5c:03:85:45:52:ad:8a:c6:0c:75:84:b2:23:
        c9:16:12:fc:3f:f8:3c:3e:51:a1:2b:3f:0b:74:42:4c:55:2d:
        3c:40:2c:21:43:1d:5f:dc:dc:dc:d0:25:79:99:91:d3:d5:71:
        9e:8c:16:35:f1:ae:57:bf:e8:10:ff:7d:1e:8d:d0:97:f5:ca:
        b0:4e:3a:a8:89:0a:5e:c8:29:fd:b7:fa:6b:a5:5c:14:54:c7:
        d4:7a:e0:48
-----BEGIN CERTIFICATE-----
MIIDTzCCAjegAwIBAgICEA0wDQYJKoZIhvcNAQELBQAwGzEZMBcGA1UEAwwQRGVt
byBSb3RhdGlvbiBDQTAeFw0yNjAyMTgxOTM3NDRaFw0yNzAyMTgxOTM3NDRaMBox
GDAWBgNVBAMMD3dlYjEuZGVtby5sb2NhbDCCASIwDQYJKoZIhvcNAQEBBQADggEP
ADCCAQoCggEBAJwo0/SUJvyWAZ8Lt0jXbwvDZieJwgvyRrugLVaR+hcEMkQq7x+M
xvKtQKH41pZEwcUeFLZeG/SMiYegyD4q3uQmR4akh3X4fzecghOATZY9fT14FRh7
edxPMZhZ3NGxvmVeArhwDZtBIyiN48qt/5kO6FPuZfUBKtc5Seryt/zu5XGWe6N5
0HM0qgxuCsZgqaSM651b0vKd26uDEKmuwFpKgErv6Qgf6CKx9hcHf8Eq37537vSX
sXX+5xQ5b1XWVfpRkXTb04jiPpiUzoJkJnSLW6bdgcSgP8s0eTeUXCrzFSdvqxT6
lC6C1eIuEjFk9uAutTuG2xMvLFxjt2DV/s0CAwEAAaOBnTCBmjAJBgNVHRMEAjAA
MAsGA1UdDwQEAwIFoDATBgNVHSUEDDAKBggrBgEFBQcDATArBgNVHREEJDAigg93
ZWIxLmRlbW8ubG9jYWyCD3dlYjIuZGVtby5sb2NhbDAdBgNVHQ4EFgQU9Pu92l+U
xBahzPSBxRdT4GHqzWYwHwYDVR0jBBgwFoAUqlM2AOja5hvUr+6k6ybmDjZ+DxIw
DQYJKoZIhvcNAQELBQADggEBAHFmH/05oyUZdEXStZiMxvihXa3VJUssR85Ouv/2
S/YB7r9/aYBgTXND50niSfn1eaX2H7H99IbLoCvpClRFVFyqlwPEyRMODrIW0zyq
iBN3wz0rqAJNe65lK6GS1uitJPfSv/aOur1Y9Nm4fK1e0MdL36o+4GhHUOMsLJkU
EKSEIx5LVoXIF21rtcaTe7mFcBrHpimS/0+NI9ny2/kOkSB4FEUwPt0GXAOFRVKt
isYMdYSyI8kWEvw/+Dw+UaErPwt0QkxVLTxALCFDHV/c3NzQJXmZkdPVcZ6MFjXx
rle/6BD/fR6N0Jf1yrBOOqiJCl7IKf23+mulXBRUx9R64Eg=
-----END CERTIFICATE-----
