Certificate:
    Data:
        Version: 3 (0x2)
        Serial Number: 4114 (0x1012)
        Signature Algorithm: sha256WithRSAEncryption
        Issuer: CN=Demo Rotation CA
        Validity
            Not Before: Feb 19 18:39:32 2026 GMT
            Not After : Feb 19 18:39:32 2027 GMT
        Subject: CN=web1.demo.local
        Subject Public Key Info:
            Public Key Algorithm: rsaEncryption
                Public-Key: (2048 bit)
                Modulus:
                    00:9f:dc:86:25:93:45:a3:4c:b2:c9:b0:dd:2e:44:
                    c8:41:d3:6e:e2:ad:4e:3a:77:96:a9:a8:64:da:ee:
                    87:f1:d7:ad:af:8b:1b:c7:b4:11:17:d2:71:01:d9:
                    b0:68:82:39:43:c6:2e:b4:ef:55:a1:d3:c1:e3:86:
                    2a:26:bc:47:27:b9:02:3e:09:a3:ed:79:22:e5:9a:
                    75:5c:41:a6:4c:33:dd:0b:71:f7:d4:82:34:e3:2c:
                    59:d7:07:6f:94:5e:62:4d:5b:09:af:57:45:39:b4:
                    54:4e:63:46:de:74:4c:67:17:71:ea:05:5d:d4:0b:
                    7a:d8:71:6c:0b:9c:d4:70:9c:c6:30:33:fe:31:7b:
                    8c:4c:3f:6d:c9:6b:f3:8d:ce:59:56:a9:07:39:a1:
                    6d:63:51:6b:01:1b:09:3d:6a:87:03:bf:46:c9:57:
                    65:8c:7b:6f:b4:ef:d8:e2:b8:38:de:c1:ff:39:6a:
                    36:c3:b8:64:80:99:d3:31:b4:88:d6:6f:7c:54:7d:
                    a2:af:d3:61:8c:f0:af:10:5a:9e:a5:0a:d5:3f:0a:
                    97:f7:8a:96:93:09:10:04:b2:8a:58:2f:b3:64:3f:
                    82:05:76:a3:d3:81:ec:88:3b:37:78:c8:93:f5:47:
                    c4:44:bc:db:d5:fc:9e:74:59:8e:f3:55:29:99:a2:
                    82:5f
                Exponent: 65537 (0x10001)
        X509v3 extensions:
            X509v3 Basic Constraints: 
                CA:FALSE
            X509v3 Key Usage: 
                Digital Signature, Key Encipherment
            X509v3 Extended Key Usage: 
                TLS Web Server Authentication
            X509v3 Subject Alternative Name: 
                DNS:web1.demo.local, DNS:web2.demo.local
            X509v3 Subject Key Identifier: 
                63:3A:A0:E0:2B:BB:7E:8F:8F:80:7D:E0:EB:58:DE:47:86:DC:53:BD
            X509v3 Authority Key Identifier: 
                AA:53:36:00:E8:DA:E6:1B:D4:AF:EE:A4:EB:26:E6:0E:36:7E:0F:12
    Signature Algorithm: sha256WithRSAEncryption
    Signature Value:
        14:80:e0:ac:ca:91:db:ae:a0:ad:e7:76:71:32:1a:7d:75:b1:
        fd:07:b0:e0:fa:c1:d2:0e:7c:7a:b7:b7:27:c0:50:61:f3:37:
        a2:7f:da:02:57:94:7e:37:9f:85:64:9a:49:ff:ea:b1:15:f1:
        48:5c:5d:97:e9:97:9f:45:62:91:a9:7e:7a:b2:6f:32:c8:6a:
        18:33:09:a1:61:2a:d4:f7:4e:5b:59:7d:26:9e:1f:d1:88:80:
        3d:2d:c1:75:e8:6f:03:93:f8:2f:0d:81:50:ae:80:25:48:dd:
        12:2e:1a:c3:e1:4d:59:e5:26:0e:b2:2d:14:49:ed:2d:2d:47:
        fd:47:b9:be:9b:93:ae:9f:ab:01:33:77:9d:f2:42:a1:c4:a2:
        8e:48:df:8c:c8:2c:0b:2b:ae:57:8b:1b:47:f0:9b:56:23:90:
        25:be:0f:fa:a6:6d:47:88:12:6a:b8:61:6c:d0:5b:4d:f8:49:
        3a:2e:92:a4:de:1d:f9:ba:bd:29:32:70:77:3b:a1:7c:fa:ae:
        97:c5:aa:7f:ef:4c:20:dd:cc:1e:5b:9a:7f:94:fb:f3:0d:ed:
        ff:a6:45:4c:68:f6:de:ca:99:10:d2:8b:d7:ac:a4:c9:7a:c1:
        4e:34:c3:a3:00:d5:81:d5:ec:4f:ab:88:1f:eb:38:ab:61:0d:
        d9:9a:a8:13
-----BEGIN CERTIFICATE-----
MIIDTzCCAjegAwIBAgICEBIwDQYJKoZIhvcNAQELBQAwGzEZMBcGA1UEAwwQRGVt
byBSb3RhdGlvbiBDQTAeFw0yNjAyMTkxODM5MzJaFw0yNzAyMTkxODM5MzJaMBox
GDAWBgNVBAMMD3dlYjEuZGVtby5sb2NhbDCCASIwDQYJKoZIhvcNAQEBBQADggEP
ADCCAQoCggEBAJ/chiWTRaNMssmw3S5EyEHTbuKtTjp3lqmoZNruh/HXra+LG8e0
ERfScQHZsGiCOUPGLrTvVaHTweOGKia8Rye5Aj4Jo+15IuWadVxBpkwz3Qtx99SC
NOMsWdcHb5ReYk1bCa9XRTm0VE5jRt50TGcXceoFXdQLethxbAuc1HCcxjAz/jF7
jEw/bclr843OWVapBzmhbWNRawEbCT1qhwO/RslXZYx7b7Tv2OK4ON7B/zlqNsO4
ZICZ0zG0iNZvfFR9oq/TYYzwrxBanqUK1T8Kl/eKlpMJEASyilgvs2Q/ggV2o9OB
7Ig7N3jIk/VHxES829X8nnRZjvNVKZmigl8CAwEAAaOBnTCBmjAJBgNVHRMEAjAA
MAsGA1UdDwQEAwIFoDATBgNVHSUEDDAKBggrBgEFBQcDATArBgNVHREEJDAigg93
ZWIxLmRlbW8ubG9jYWyCD3dlYjIuZGVtby5sb2NhbDAdBgNVHQ4EFgQUYzqg4Cu7
fo+PgH3g61jeR4bcU70wHwYDVR0jBBgwFoAUqlM2AOja5hvUr+6k6ybmDjZ+DxIw
DQYJKoZIhvcNAQELBQADggEBABSA4KzKkduuoK3ndnEyGn11sf0HsOD6wdIOfHq3
tyfAUGHzN6J/2gJXlH43n4Vkmkn/6rEV8UhcXZfpl59FYpGpfnqybzLIahgzCaFh
KtT3TltZfSaeH9GIgD0twXXobwOT+C8NgVCugCVI3RIuGsPhTVnlJg6yLRRJ7S0t
R/1Hub6bk66fqwEzd53yQqHEoo5I34zILAsrrleLG0fwm1YjkCW+D/qmbUeIEmq4
YWzQW034SToukqTeHfm6vSkycHc7oXz6rpfFqn/vTCDdzB5bmn+U+/MN7f+mRUxo
9t7KmRDSi9espMl6wU40w6MA1YHV7E+riB/rOKthDdmaqBM=
-----END CERTIFICATE-----
