Certificate:
    Data:
        Version: 3 (0x2)
        Serial Number: 4115 (0x1013)
        Signature Algorithm: sha256WithRSAEncryption
        Issuer: CN=Demo Rotation CA
        Validity
            Not Before: Feb 19 18:39:32 2026 GMT
            Not After : Feb 19 18:39:32 2027 GMT
        Subject: CN=webdev1.demo.local
        Subject Public Key Info:
            Public Key Algorithm: rsaEncryption
                Public-Key: (2048 bit)
                Modulus:
                    00:9e:3b:65:45:61:4d:f7:b2:81:8c:ef:74:5f:28:
                    fe:3a:06:f7:37:0b:41:e9:dc:63:eb:66:4a:3e:5c:
                    44:62:d7:2c:b9:ff:b9:e3:93:1e:f4:e9:a0:90:f7:
                    77:bc:30:3b:fa:15:d8:27:20:e3:ce:54:e9:52:8b:
                    46:6a:f0:6c:78:da:ef:91:02:38:b6:94:ca:97:22:
                    a7:75:81:e4:cf:88:de:f8:5a:02:75:37:86:77:b1:
                    02:a2:90:1f:ba:63:de:5b:08:7f:f4:bb:2d:c3:d4:
                    a5:c0:3b:5a:35:99:e1:98:52:b9:74:e2:c0:e3:d1:
                    18:19:66:28:84:cd:dd:7f:45:d1:89:f7:f3:b2:0c:
                    d4:42:12:e6:a3:5e:e8:43:13:68:5e:97:6b:8f:2d:
                    7d:70:ca:ff:2a:1c:aa:7e:fb:4a:b9:12:b0:57:2e:
                    9f:b7:9d:8d:cc:6a:81:d4:70:f0:16:27:72:7a:1e:
                    39:2e:b2:49:06:05:00:a5:3a:24:f7:d0:23:15:92:
                    00:7d:ef:b9:c8:74:39:3f:bd:1d:30:45:26:a1:f3:
                    8f:75:e2:fa:be:a0:65:5a:15:6a:bd:5a:1b:5c:73:
                    e9:b4:bf:8d:a5:73:53:ac:fd:51:23:69:48:a9:53:
                    52:c8:f9:d1:ef:15:4d:e6:6b:b3:9b:7c:b8:d3:9c:
                    52:5d
                Exponent: 65537 (0x10001)
        X509v3 extensions:
            X509v3 Basic Constraints: 
                CA:FALSE
            X509v3 Key Usage: 
                Digital Signature, Key Encipherment
            X509v3 Extended Key Usage: 
                TLS Web Server Authentication
            X509v3 Subject Alternative Name: 
                DNS:webdev1.demo.local, DNS:webdev2.demo.local
            X509v3 Subject Key Identifier: 
                BD:02:88:BA:CD:76:1A:1E:66:37:2F:7E:4E:DB:F2:C2:43:3E:97:92
            X509v3 Authority Key Identifier: 
                AA:53:36:00:E8:DA:E6:1B:D4:AF:EE:A4:EB:26:E6:0E:36:7E:0F:12
    Signature Algorithm: sha256WithRSAEncryption
    Signature Value:
        92:e5:f7:fe:9a:d2:67:1b:6b:fc:ce:3e:bb:1f:d2:40:c7:18:
        5e:62:48:9a:04:38:be:3b:b0:72:f5:c7:16:cb:54:c2:53:23:
        20:94:4a:74:71:d0:f6:1d:28:d1:08:96:6f:4f:a0:f7:83:8b:
        02:24:e1:e2:ed:a4:fd:55:f1:1b:ad:c5:9d:2c:40:3b:69:10:
        5b:c1:00:0b:47:ad:1a:e1:3c:1f:e1:82:81:0e:e4:ed:08:2f:
        fb:05:13:cf:ab:21:5c:16:0e:c0:73:45:3d:1d:34:d4:8e:23:
        1c:89:6b:fa:e3:2a:3f:3e:ef:92:f8:df:1d:1f:4f:5f:5a:58:
        54:d8:41:2d:17:8f:f7:23:a0:0c:81:ca:fe:fb:bc:f9:61:dd:
        d9:41:4e:91:1b:5d:10:65:c3:01:71:e8:8a:17:2d:62:1f:42:
        01:fa:ef:8c:99:d0:ea:a6:12:83:19:10:ce:f6:22:29:db:8f:
        5b:24:45:a2:27:94:fd:8b:7c:a5:41:0e:dd:ae:88:c1:ca:95:
        5d:39:0f:87:08:27:2d:e8:01:01:91:e7:6b:07:51:0e:00:84:
        a9:8a:e7:f1:7f:00:59:ad:d3:82:16:13:5d:5b:9d:4c:7e:87:
        71:e1:24:82:38:3c:d8:79:58:f9:88:a2:ec:af:d5:68:1a:04:
        7c:5c:84:f4
-----BEGIN CERTIFICATE-----
MIIDWDCCAkCgAwIBAgICEBMwDQYJKoZIhvcNAQELBQAwGzEZMBcGA1UEAwwQRGVt
byBSb3RhdGlvbiBDQTAeFw0yNjAyMTkxODM5MzJaFw0yNzAyMTkxODM5MzJaMB0x
GzAZBgNVBAMMEndlYmRldjEuZGVtby5sb2NhbDCCASIwDQYJKoZIhvcNAQEBBQAD
ggEPADCCAQoCggEBAJ47ZUVhTfeygYzvdF8o/joG9zcLQencY+tmSj5cRGLXLLn/
ueOTHvTpoJD3d7wwO/oV2Ccg485U6VKLRmrwbHja75ECOLaUypcip3WB5M+I3vha
AnU3hnexAqKQH7pj3lsIf/S7LcPUpcA7WjWZ4ZhSuXTiwOPRGBlmKITN3X9F0Yn3
87IM1EIS5qNe6EMTaF6Xa48tfXDK/yocqn77SrkSsFcun7edjcxqgdRw8BYncnoe
OS6ySQYFAKU6JPfQIxWSAH3vuch0OT+9HTBFJqHzj3Xi+r6gZVoVar1aG1xz6bS/
jaVzU6z9USNpSKlTUsj50e8VTeZrs5t8uNOcUl0CAwEAAaOBozCBoDAJBgNVHRME
AjAAMAsGA1UdDwQEAwIFoDATBgNVHSUEDDAKBggrBgEFBQcDATAxBgNVHREEKjAo
ghJ3ZWJkZXYxLmRlbW8ubG9jYWyCEndlYmRldjIuZGVtby5sb2NhbDAdBgNVHQ4E
FgQUvQKIus12Gh5mNy9+TtvywkM+l5IwHwYDVR0jBBgwFoAUqlM2AOja5hvUr+6k
6ybmDjZ+DxIwDQYJKoZIhvcNAQELBQADggEBAJLl9/6a0mcba/zOPrsf0kDHGF5i
SJoEOL47sHL1xxbLVMJTIyCUSnRx0PYdKNEIlm9PoPeDiwIk4eLtpP1V8RutxZ0s
QDtpEFvBAAtHrRrhPB/hgoEO5O0IL/sFE8+rIVwWDsBzRT0dNNSOIxyJa/rjKj8+
75L43x0fT19aWFTYQS0Xj/cjoAyByv77vPlh3dlBTpEbXRBlwwFx6IoXLWIfQgH6
74yZ0OqmEoMZEM72Iinbj1skRaInlP2LfKVBDt2uiMHKlV05D4cIJy3oAQGR52sH
UQ4AhKmK5/F/AFmt04IWE11bnUx+h3HhJII4PNh5WPmIouyv1WgaBHxchPQ=
-----END CERTIFICATE-----
